target datalayout = "e-m:e-p270:32:32-p271:32:32-p272:64:64-i64:64-i128:128-f80:128-n8:16:32:64-S128"
target triple = "x86_64-pc-linux-gnu"

%struct.AVCodecContext = type { ptr, i32, i32, ptr, i32, i32, ptr, ptr, ptr, i64, i32, i32, ptr, i32, %struct.AVRational, %struct.AVRational, %struct.AVRational, i32, i32, i32, i32, i32, %struct.AVRational, i32, i32, i32, i32, i32, i32, i32, i32, i32, i32, i32, ptr, ptr, i32, float, float, float, float, float, float, float, float, float, i32, i32, i32, i32, i32, i32, i32, i32, i32, i32, i32, i32, ptr, ptr, ptr, i32, i32, i32, i32, i32, i32, i32, i32, i32, i32, %struct.AVChannelLayout, i32, i32, i32, i32, i32, i32, i32, i32, ptr, i32, i32, i32, float, float, i32, i32, i32, i32, i32, ptr, i64, i64, float, float, i32, i32, ptr, ptr, i32, i32, i32, i32, i32, ptr, ptr, ptr, ptr, i32, i32, [8 x i64], i32, i32, i32, i32, i32, i32, i32, ptr, ptr, i32, i32, i32, i32, i32, i32, i32, i32, i32, i32, ptr, ptr, i32, i32, ptr, ptr, ptr, ptr, i32, i32, i64, i32, i32, i64, ptr, i64, ptr, i32, ptr, i32 }
%struct.AVRational = type { i32, i32 }
%struct.AVChannelLayout = type { i32, i32, %union.anon.1, ptr }
%union.anon.1 = type { i64 }
%struct.RawVideoContext = type { ptr, ptr, i32, i32, i32, i32, i32, i32, i32, i32, i32, i32, %struct.BswapDSPContext, ptr, i32 }
%struct.BswapDSPContext = type { ptr, ptr }
%struct.AVPixFmtDescriptor = type { ptr, i8, i8, i8, i64, [4 x %struct.AVComponentDescriptor], ptr }
%struct.AVComponentDescriptor = type { i32, i32, i32, i32, i32 }
%struct.AVBufferRef = type { ptr, ptr, i64 }

@.str.7 = private unnamed_addr constant [23 x i8] c"Invalid pixel format.\0A\00", align 1
@.str.8 = private unnamed_addr constant [9 x i8] c"BottomUp\00", align 1
@.str.9 = private unnamed_addr constant [5 x i8] c"yuv2\00", align 1

; Function Attrs: cold nounwind optsize uwtable
define internal i32 @raw_init_decoder(ptr noundef %0) #0 {
  %2 = alloca i32, align 4
  %3 = alloca ptr, align 8
  %4 = alloca ptr, align 8
  %5 = alloca ptr, align 8
  %6 = alloca i32, align 4
  store ptr %0, ptr %3, align 8, !tbaa !4
  call void @llvm.lifetime.start.p0(i64 8, ptr %4) #11
  %7 = load ptr, ptr %3, align 8, !tbaa !4
  %8 = getelementptr inbounds nuw %struct.AVCodecContext, ptr %7, i32 0, i32 6
  %9 = load ptr, ptr %8, align 8, !tbaa !9
  store ptr %9, ptr %4, align 8, !tbaa !29
  call void @llvm.lifetime.start.p0(i64 8, ptr %5) #11
  %10 = load ptr, ptr %4, align 8, !tbaa !29
  %11 = getelementptr inbounds nuw %struct.RawVideoContext, ptr %10, i32 0, i32 12
  call void @ff_bswapdsp_init(ptr noundef %11)
  %12 = load ptr, ptr %3, align 8, !tbaa !4
  %13 = getelementptr inbounds nuw %struct.AVCodecContext, ptr %12, i32 0, i32 5
  %14 = load i32, ptr %13, align 4, !tbaa !31
  %15 = icmp eq i32 %14, 544694642
  br i1 %15, label %21, label %16

16:                                               ; preds = %1
  %17 = load ptr, ptr %3, align 8, !tbaa !4
  %18 = getelementptr inbounds nuw %struct.AVCodecContext, ptr %17, i32 0, i32 5
  %19 = load i32, ptr %18, align 4, !tbaa !31
  %20 = icmp eq i32 %19, 909201230
  br i1 %20, label %21, label %28

21:                                               ; preds = %16, %1
  %22 = load ptr, ptr %3, align 8, !tbaa !4
  %23 = getelementptr inbounds nuw %struct.AVCodecContext, ptr %22, i32 0, i32 114
  %24 = load i32, ptr %23, align 8, !tbaa !32
  %25 = call i32 @avpriv_pix_fmt_find(i32 noundef 2, i32 noundef %24)
  %26 = load ptr, ptr %3, align 8, !tbaa !4
  %27 = getelementptr inbounds nuw %struct.AVCodecContext, ptr %26, i32 0, i32 23
  store i32 %25, ptr %27, align 8, !tbaa !33
  br label %78

28:                                               ; preds = %16
  %29 = load ptr, ptr %3, align 8, !tbaa !4
  %30 = getelementptr inbounds nuw %struct.AVCodecContext, ptr %29, i32 0, i32 5
  %31 = load i32, ptr %30, align 4, !tbaa !31
  %32 = icmp eq i32 %31, 1463898711
  br i1 %32, label %33, label %40

33:                                               ; preds = %28
  %34 = load ptr, ptr %3, align 8, !tbaa !4
  %35 = getelementptr inbounds nuw %struct.AVCodecContext, ptr %34, i32 0, i32 114
  %36 = load i32, ptr %35, align 8, !tbaa !32
  %37 = call i32 @avpriv_pix_fmt_find(i32 noundef 1, i32 noundef %36)
  %38 = load ptr, ptr %3, align 8, !tbaa !4
  %39 = getelementptr inbounds nuw %struct.AVCodecContext, ptr %38, i32 0, i32 23
  store i32 %37, ptr %39, align 8, !tbaa !33
  br label %77

40:                                               ; preds = %28
  %41 = load ptr, ptr %3, align 8, !tbaa !4
  %42 = getelementptr inbounds nuw %struct.AVCodecContext, ptr %41, i32 0, i32 5
  %43 = load i32, ptr %42, align 4, !tbaa !31
  %44 = icmp ne i32 %43, 0
  br i1 %44, label %45, label %58

45:                                               ; preds = %40
  %46 = load ptr, ptr %3, align 8, !tbaa !4
  %47 = getelementptr inbounds nuw %struct.AVCodecContext, ptr %46, i32 0, i32 5
  %48 = load i32, ptr %47, align 4, !tbaa !31
  %49 = and i32 %48, 16777215
  %50 = icmp ne i32 %49, 5523778
  br i1 %50, label %51, label %58

51:                                               ; preds = %45
  %52 = load ptr, ptr %3, align 8, !tbaa !4
  %53 = getelementptr inbounds nuw %struct.AVCodecContext, ptr %52, i32 0, i32 5
  %54 = load i32, ptr %53, align 4, !tbaa !31
  %55 = call i32 @avpriv_pix_fmt_find(i32 noundef 0, i32 noundef %54)
  %56 = load ptr, ptr %3, align 8, !tbaa !4
  %57 = getelementptr inbounds nuw %struct.AVCodecContext, ptr %56, i32 0, i32 23
  store i32 %55, ptr %57, align 8, !tbaa !33
  br label %76

58:                                               ; preds = %45, %40
  %59 = load ptr, ptr %3, align 8, !tbaa !4
  %60 = getelementptr inbounds nuw %struct.AVCodecContext, ptr %59, i32 0, i32 23
  %61 = load i32, ptr %60, align 8, !tbaa !33
  %62 = icmp eq i32 %61, -1
  br i1 %62, label %63, label %75

63:                                               ; preds = %58
  %64 = load ptr, ptr %3, align 8, !tbaa !4
  %65 = getelementptr inbounds nuw %struct.AVCodecContext, ptr %64, i32 0, i32 114
  %66 = load i32, ptr %65, align 8, !tbaa !32
  %67 = icmp ne i32 %66, 0
  br i1 %67, label %68, label %75

68:                                               ; preds = %63
  %69 = load ptr, ptr %3, align 8, !tbaa !4
  %70 = getelementptr inbounds nuw %struct.AVCodecContext, ptr %69, i32 0, i32 114
  %71 = load i32, ptr %70, align 8, !tbaa !32
  %72 = call i32 @avpriv_pix_fmt_find(i32 noundef 1, i32 noundef %71)
  %73 = load ptr, ptr %3, align 8, !tbaa !4
  %74 = getelementptr inbounds nuw %struct.AVCodecContext, ptr %73, i32 0, i32 23
  store i32 %72, ptr %74, align 8, !tbaa !33
  br label %75

75:                                               ; preds = %68, %63, %58
  br label %76

76:                                               ; preds = %75, %51
  br label %77

77:                                               ; preds = %76, %33
  br label %78

78:                                               ; preds = %77, %21
  %79 = load ptr, ptr %3, align 8, !tbaa !4
  %80 = getelementptr inbounds nuw %struct.AVCodecContext, ptr %79, i32 0, i32 23
  %81 = load i32, ptr %80, align 8, !tbaa !33
  %82 = call ptr @av_pix_fmt_desc_get(i32 noundef %81)
  store ptr %82, ptr %5, align 8, !tbaa !34
  %83 = load ptr, ptr %5, align 8, !tbaa !34
  %84 = icmp ne ptr %83, null
  br i1 %84, label %87, label %85

85:                                               ; preds = %78
  %86 = load ptr, ptr %3, align 8, !tbaa !4
  call void (ptr, i32, ptr, ...) @av_log(ptr noundef %86, i32 noundef 16, ptr noundef @.str.7)
  store i32 -22, ptr %2, align 4
  store i32 1, ptr %6, align 4
  br label %213

87:                                               ; preds = %78
  %88 = load ptr, ptr %5, align 8, !tbaa !34
  %89 = getelementptr inbounds nuw %struct.AVPixFmtDescriptor, ptr %88, i32 0, i32 4
  %90 = load i64, ptr %89, align 8, !tbaa !36
  %91 = and i64 %90, 2
  %92 = icmp ne i64 %91, 0
  br i1 %92, label %93, label %119

93:                                               ; preds = %87
  %94 = call ptr @av_buffer_alloc(i64 noundef 1024)
  %95 = load ptr, ptr %4, align 8, !tbaa !29
  %96 = getelementptr inbounds nuw %struct.RawVideoContext, ptr %95, i32 0, i32 1
  store ptr %94, ptr %96, align 8, !tbaa !38
  %97 = load ptr, ptr %4, align 8, !tbaa !29
  %98 = getelementptr inbounds nuw %struct.RawVideoContext, ptr %97, i32 0, i32 1
  %99 = load ptr, ptr %98, align 8, !tbaa !38
  %100 = icmp ne ptr %99, null
  br i1 %100, label %102, label %101

101:                                              ; preds = %93
  store i32 -12, ptr %2, align 4
  store i32 1, ptr %6, align 4
  br label %213

102:                                              ; preds = %93
  %103 = load ptr, ptr %4, align 8, !tbaa !29
  %104 = getelementptr inbounds nuw %struct.RawVideoContext, ptr %103, i32 0, i32 1
  %105 = load ptr, ptr %104, align 8, !tbaa !38
  %106 = getelementptr inbounds nuw %struct.AVBufferRef, ptr %105, i32 0, i32 1
  %107 = load ptr, ptr %106, align 8, !tbaa !41
  call void @llvm.memset.p0.i64(ptr align 1 %107, i8 0, i64 1024, i1 false)
  %108 = load ptr, ptr %3, align 8, !tbaa !4
  %109 = getelementptr inbounds nuw %struct.AVCodecContext, ptr %108, i32 0, i32 114
  %110 = load i32, ptr %109, align 8, !tbaa !32
  %111 = icmp eq i32 %110, 1
  br i1 %111, label %112, label %118

112:                                              ; preds = %102
  %113 = load ptr, ptr %4, align 8, !tbaa !29
  %114 = getelementptr inbounds nuw %struct.RawVideoContext, ptr %113, i32 0, i32 1
  %115 = load ptr, ptr %114, align 8, !tbaa !38
  %116 = getelementptr inbounds nuw %struct.AVBufferRef, ptr %115, i32 0, i32 1
  %117 = load ptr, ptr %116, align 8, !tbaa !41
  call void @llvm.memset.p0.i64(ptr align 1 %117, i8 -1, i64 4, i1 false)
  br label %118

118:                                              ; preds = %112, %102
  br label %119

119:                                              ; preds = %118, %87
  %120 = load ptr, ptr %3, align 8, !tbaa !4
  %121 = getelementptr inbounds nuw %struct.AVCodecContext, ptr %120, i32 0, i32 13
  %122 = load i32, ptr %121, align 8, !tbaa !44
  %123 = icmp sge i32 %122, 9
  br i1 %123, label %124, label %136

124:                                              ; preds = %119
  %125 = load ptr, ptr %3, align 8, !tbaa !4
  %126 = getelementptr inbounds nuw %struct.AVCodecContext, ptr %125, i32 0, i32 12
  %127 = load ptr, ptr %126, align 8, !tbaa !45
  %128 = load ptr, ptr %3, align 8, !tbaa !4
  %129 = getelementptr inbounds nuw %struct.AVCodecContext, ptr %128, i32 0, i32 13
  %130 = load i32, ptr %129, align 8, !tbaa !44
  %131 = sext i32 %130 to i64
  %132 = getelementptr inbounds i8, ptr %127, i64 %131
  %133 = getelementptr inbounds i8, ptr %132, i64 -9
  %134 = call i32 @memcmp(ptr noundef %133, ptr noundef @.str.8, i64 noundef 9) #12
  %135 = icmp ne i32 %134, 0
  br i1 %135, label %136, label %151

136:                                              ; preds = %124, %119
  %137 = load ptr, ptr %3, align 8, !tbaa !4
  %138 = getelementptr inbounds nuw %struct.AVCodecContext, ptr %137, i32 0, i32 5
  %139 = load i32, ptr %138, align 4, !tbaa !31
  %140 = icmp eq i32 %139, 1987410275
  br i1 %140, label %151, label %141

141:                                              ; preds = %136
  %142 = load ptr, ptr %3, align 8, !tbaa !4
  %143 = getelementptr inbounds nuw %struct.AVCodecContext, ptr %142, i32 0, i32 5
  %144 = load i32, ptr %143, align 4, !tbaa !31
  %145 = icmp eq i32 %144, 3
  br i1 %145, label %151, label %146

146:                                              ; preds = %141
  %147 = load ptr, ptr %3, align 8, !tbaa !4
  %148 = getelementptr inbounds nuw %struct.AVCodecContext, ptr %147, i32 0, i32 5
  %149 = load i32, ptr %148, align 4, !tbaa !31
  %150 = icmp eq i32 %149, 1463898711
  br i1 %150, label %151, label %154

151:                                              ; preds = %146, %141, %136, %124
  %152 = load ptr, ptr %4, align 8, !tbaa !29
  %153 = getelementptr inbounds nuw %struct.RawVideoContext, ptr %152, i32 0, i32 3
  store i32 1, ptr %153, align 4, !tbaa !46
  br label %154

154:                                              ; preds = %151, %146
  %155 = load ptr, ptr %3, align 8, !tbaa !4
  %156 = getelementptr inbounds nuw %struct.AVCodecContext, ptr %155, i32 0, i32 23
  %157 = load i32, ptr %156, align 8, !tbaa !33
  %158 = icmp eq i32 %157, 9
  br i1 %158, label %164, label %159

159:                                              ; preds = %154
  %160 = load ptr, ptr %3, align 8, !tbaa !4
  %161 = getelementptr inbounds nuw %struct.AVCodecContext, ptr %160, i32 0, i32 23
  %162 = load i32, ptr %161, align 8, !tbaa !33
  %163 = icmp eq i32 %162, 10
  br i1 %163, label %164, label %167

164:                                              ; preds = %159, %154
  %165 = load ptr, ptr %4, align 8, !tbaa !29
  %166 = getelementptr inbounds nuw %struct.RawVideoContext, ptr %165, i32 0, i32 5
  store i32 1, ptr %166, align 4, !tbaa !47
  br label %176

167:                                              ; preds = %159
  %168 = load ptr, ptr %3, align 8, !tbaa !4
  %169 = getelementptr inbounds nuw %struct.AVCodecContext, ptr %168, i32 0, i32 23
  %170 = load i32, ptr %169, align 8, !tbaa !33
  %171 = icmp eq i32 %170, 11
  br i1 %171, label %172, label %175

172:                                              ; preds = %167
  %173 = load ptr, ptr %4, align 8, !tbaa !29
  %174 = getelementptr inbounds nuw %struct.RawVideoContext, ptr %173, i32 0, i32 6
  store i32 1, ptr %174, align 8, !tbaa !48
  br label %175

175:                                              ; preds = %172, %167
  br label %176

176:                                              ; preds = %175, %164
  %177 = load ptr, ptr %3, align 8, !tbaa !4
  %178 = getelementptr inbounds nuw %struct.AVCodecContext, ptr %177, i32 0, i32 5
  %179 = load i32, ptr %178, align 4, !tbaa !31
  %180 = icmp eq i32 %179, 811020610
  br i1 %180, label %186, label %181

181:                                              ; preds = %176
  %182 = load ptr, ptr %3, align 8, !tbaa !4
  %183 = getelementptr inbounds nuw %struct.AVCodecContext, ptr %182, i32 0, i32 5
  %184 = load i32, ptr %183, align 4, !tbaa !31
  %185 = icmp eq i32 %184, 827797570
  br i1 %185, label %186, label %189

186:                                              ; preds = %181, %176
  %187 = load ptr, ptr %4, align 8, !tbaa !29
  %188 = getelementptr inbounds nuw %struct.RawVideoContext, ptr %187, i32 0, i32 7
  store i32 1, ptr %188, align 4, !tbaa !49
  br label %198

189:                                              ; preds = %181
  %190 = load ptr, ptr %3, align 8, !tbaa !4
  %191 = getelementptr inbounds nuw %struct.AVCodecContext, ptr %190, i32 0, i32 5
  %192 = load i32, ptr %191, align 4, !tbaa !31
  %193 = icmp eq i32 %192, 139215184
  br i1 %193, label %194, label %197

194:                                              ; preds = %189
  %195 = load ptr, ptr %4, align 8, !tbaa !29
  %196 = getelementptr inbounds nuw %struct.RawVideoContext, ptr %195, i32 0, i32 8
  store i32 1, ptr %196, align 8, !tbaa !50
  br label %197

197:                                              ; preds = %194, %189
  br label %198

198:                                              ; preds = %197, %186
  %199 = load ptr, ptr %3, align 8, !tbaa !4
  %200 = getelementptr inbounds nuw %struct.AVCodecContext, ptr %199, i32 0, i32 5
  %201 = load i32, ptr %200, align 4, !tbaa !31
  %202 = load i32, ptr @.str.9, align 1, !tbaa !51
  %203 = icmp eq i32 %201, %202
  br i1 %203, label %204, label %212

204:                                              ; preds = %198
  %205 = load ptr, ptr %3, align 8, !tbaa !4
  %206 = getelementptr inbounds nuw %struct.AVCodecContext, ptr %205, i32 0, i32 23
  %207 = load i32, ptr %206, align 8, !tbaa !33
  %208 = icmp eq i32 %207, 1
  br i1 %208, label %209, label %212

209:                                              ; preds = %204
  %210 = load ptr, ptr %4, align 8, !tbaa !29
  %211 = getelementptr inbounds nuw %struct.RawVideoContext, ptr %210, i32 0, i32 9
  store i32 1, ptr %211, align 4, !tbaa !52
  br label %212

212:                                              ; preds = %209, %204, %198
  store i32 0, ptr %2, align 4
  store i32 1, ptr %6, align 4
  br label %213

213:                                              ; preds = %212, %101, %85
  call void @llvm.lifetime.end.p0(i64 8, ptr %5) #11
  call void @llvm.lifetime.end.p0(i64 8, ptr %4) #11
  %214 = load i32, ptr %2, align 4
  ret i32 %214
}