; Function Attrs: cold nounwind optsize uwtable
define internal range(i32 -22, 1) i32 @raw_init_decoder(ptr noundef %0) #0 {
  %2 = getelementptr inbounds nuw i8, ptr %0, i64 32
  %3 = load ptr, ptr %2, align 8, !tbaa !4
  %4 = getelementptr inbounds nuw i8, ptr %3, i64 56
  tail call void @ff_bswapdsp_init(ptr noundef nonnull %4) #9
  %5 = getelementptr inbounds nuw i8, ptr %0, i64 28
  %6 = load i32, ptr %5, align 4, !tbaa !27
  switch i32 %6, label %17 [
    i32 544694642, label %7
    i32 909201230, label %7
    i32 1463898711, label %12
    i32 0, label %22
  ]

7:                                                ; preds = %1, %1
  %8 = getelementptr inbounds nuw i8, ptr %0, i64 648
  %9 = load i32, ptr %8, align 8, !tbaa !28
  %10 = tail call i32 @avpriv_pix_fmt_find(i32 noundef 2, i32 noundef %9) #9
  %11 = getelementptr inbounds nuw i8, ptr %0, i64 136
  store i32 %10, ptr %11, align 8, !tbaa !29
  br label %31

12:                                               ; preds = %1
  %13 = getelementptr inbounds nuw i8, ptr %0, i64 648
  %14 = load i32, ptr %13, align 8, !tbaa !28
  %15 = tail call i32 @avpriv_pix_fmt_find(i32 noundef 1, i32 noundef %14) #9
  %16 = getelementptr inbounds nuw i8, ptr %0, i64 136
  store i32 %15, ptr %16, align 8, !tbaa !29
  br label %31

17:                                               ; preds = %1
  %18 = and i32 %6, 16777215
  %.not54 = icmp eq i32 %18, 5523778
  br i1 %.not54, label %22, label %19

19:                                               ; preds = %17
  %20 = tail call i32 @avpriv_pix_fmt_find(i32 noundef 0, i32 noundef %6) #9
  %21 = getelementptr inbounds nuw i8, ptr %0, i64 136
  store i32 %20, ptr %21, align 8, !tbaa !29
  br label %31

22:                                               ; preds = %1, %17
  %23 = getelementptr inbounds nuw i8, ptr %0, i64 136
  %24 = load i32, ptr %23, align 8, !tbaa !29
  %25 = icmp eq i32 %24, -1
  br i1 %25, label %26, label %31

26:                                               ; preds = %22
  %27 = getelementptr inbounds nuw i8, ptr %0, i64 648
  %28 = load i32, ptr %27, align 8, !tbaa !28
  %.not55 = icmp eq i32 %28, 0
  br i1 %.not55, label %31, label %29

29:                                               ; preds = %26
  %30 = tail call i32 @avpriv_pix_fmt_find(i32 noundef 1, i32 noundef %28) #9
  store i32 %30, ptr %23, align 8, !tbaa !29
  br label %31

31:                                               ; preds = %12, %22, %26, %29, %19, %7
  %32 = phi i32 [ %15, %12 ], [ %24, %22 ], [ -1, %26 ], [ %30, %29 ], [ %20, %19 ], [ %10, %7 ]
  %33 = getelementptr inbounds nuw i8, ptr %0, i64 136
  %34 = tail call ptr @av_pix_fmt_desc_get(i32 noundef %32) #9
  %.not56 = icmp eq ptr %34, null
  br i1 %.not56, label %35, label %36

35:                                               ; preds = %31
  tail call void (ptr, i32, ptr, ...) @av_log(ptr noundef nonnull %0, i32 noundef 16, ptr noundef nonnull @.str.7) #9
  br label %.thread

36:                                               ; preds = %31
  %37 = getelementptr inbounds nuw i8, ptr %34, i64 16
  %38 = load i64, ptr %37, align 8, !tbaa !30
  %39 = and i64 %38, 2
  %.not57 = icmp eq i64 %39, 0
  br i1 %.not57, label %53, label %40

40:                                               ; preds = %36
  %41 = tail call ptr @av_buffer_alloc(i64 noundef 1024) #9
  %42 = getelementptr inbounds nuw i8, ptr %3, i64 8
  store ptr %41, ptr %42, align 8, !tbaa !32
  %.not58 = icmp eq ptr %41, null
  br i1 %.not58, label %.thread, label %43

43:                                               ; preds = %40
  %44 = getelementptr inbounds nuw i8, ptr %41, i64 8
  %45 = load ptr, ptr %44, align 8, !tbaa !35
  tail call void @llvm.memset.p0.i64(ptr noundef nonnull align 1 dereferenceable(1024) %45, i8 0, i64 1024, i1 false)
  %46 = getelementptr inbounds nuw i8, ptr %0, i64 648
  %47 = load i32, ptr %46, align 8, !tbaa !28
  %48 = icmp eq i32 %47, 1
  br i1 %48, label %49, label %53

49:                                               ; preds = %43
  %50 = load ptr, ptr %42, align 8, !tbaa !32
  %51 = getelementptr inbounds nuw i8, ptr %50, i64 8
  %52 = load ptr, ptr %51, align 8, !tbaa !35
  store i32 -1, ptr %52, align 1
  br label %53

53:                                               ; preds = %43, %49, %36
  %54 = getelementptr inbounds nuw i8, ptr %0, i64 80
  %55 = load i32, ptr %54, align 8, !tbaa !38
  %56 = icmp sgt i32 %55, 8
  br i1 %56, label %57, label %63

57:                                               ; preds = %53
  %58 = getelementptr inbounds nuw i8, ptr %0, i64 72
  %59 = load ptr, ptr %58, align 8, !tbaa !39
  %60 = zext nneg i32 %55 to i64
  %61 = getelementptr inbounds nuw i8, ptr %59, i64 %60
  %62 = getelementptr inbounds i8, ptr %61, i64 -9
  %bcmp = tail call i32 @bcmp(ptr noundef nonnull dereferenceable(9) %62, ptr noundef nonnull dereferenceable(9) @.str.8, i64 9)
  %.not59 = icmp eq i32 %bcmp, 0
  br i1 %.not59, label %65, label %63

63:                                               ; preds = %57, %53
  %64 = load i32, ptr %5, align 4, !tbaa !27
  switch i32 %64, label %67 [
    i32 1987410275, label %65
    i32 3, label %65
    i32 1463898711, label %65
  ]

65:                                               ; preds = %63, %63, %63, %57
  %66 = getelementptr inbounds nuw i8, ptr %3, i64 20
  store i32 1, ptr %66, align 4, !tbaa !40
  br label %67

67:                                               ; preds = %63, %65
  %68 = load i32, ptr %33, align 8, !tbaa !29
  switch i32 %68, label %73 [
    i32 9, label %69
    i32 10, label %69
    i32 11, label %71
  ]

69:                                               ; preds = %67, %67
  %70 = getelementptr inbounds nuw i8, ptr %3, i64 28
  store i32 1, ptr %70, align 4, !tbaa !41
  br label %73

71:                                               ; preds = %67
  %72 = getelementptr inbounds nuw i8, ptr %3, i64 32
  store i32 1, ptr %72, align 8, !tbaa !42
  br label %73

73:                                               ; preds = %67, %71, %69
  %74 = load i32, ptr %5, align 4, !tbaa !27
  switch i32 %74, label %.thread [
    i32 811020610, label %75
    i32 827797570, label %75
    i32 139215184, label %77
    i32 846624121, label %79
  ]

75:                                               ; preds = %73, %73
  %76 = getelementptr inbounds nuw i8, ptr %3, i64 36
  store i32 1, ptr %76, align 4, !tbaa !43
  br label %.thread

77:                                               ; preds = %73
  %78 = getelementptr inbounds nuw i8, ptr %3, i64 40
  store i32 1, ptr %78, align 8, !tbaa !44
  br label %.thread

79:                                               ; preds = %73
  %80 = icmp eq i32 %68, 1
  br i1 %80, label %81, label %.thread

81:                                               ; preds = %79
  %82 = getelementptr inbounds nuw i8, ptr %3, i64 44
  store i32 1, ptr %82, align 4, !tbaa !45
  br label %.thread

.thread:                                          ; preds = %73, %75, %77, %79, %81, %40, %35
  %.0 = phi i32 [ -22, %35 ], [ -12, %40 ], [ 0, %81 ], [ 0, %79 ], [ 0, %77 ], [ 0, %75 ], [ 0, %73 ]
  ret i32 %.0
}